target datalayout = "e-m:e-p270:32:32-p271:32:32-p272:64:64-i64:64-i128:128-f80:128-n8:16:32:64-S128"
target triple = "x86_64-pc-linux-gnu"

%class.QModelIndex = type { i32, i32, i64, ptr }
%class.QObject = type { ptr, %class.QScopedPointer }
%class.QScopedPointer = type { ptr }
%class.QPaintDevice.base = type <{ ptr, i16 }>
%class.QList.9 = type { %struct.QArrayDataPointer.12 }
%struct.QArrayDataPointer.12 = type { ptr, ptr, i64 }
%class.PacketList = type { %class.QTreeView, ptr, ptr, ptr, ptr, %class.QMenu, %class.QMenu, %class.QMenu, i32, %class.QByteArray, ptr, i32, i8, i8, %class.QList, i8, %class.QModelIndex, %class.RelatedPacketDelegate, ptr, %class.QList.1, i8, i8, i8, i8, i8, %class.QModelIndex, %class.QList.5, %class.QList.9, i32, i8, ptr }
%class.QTreeView = type { %class.QAbstractItemView }
%class.QAbstractItemView = type { %class.QAbstractScrollArea }
%class.QAbstractScrollArea = type { %class.QFrame }
%class.QFrame = type { %class.QWidget }
%class.QWidget = type { %class.QObject, %class.QPaintDevice.base, ptr }
%class.QMenu = type { %class.QWidget }
%class.QByteArray = type { %struct.QArrayDataPointer }
%struct.QArrayDataPointer = type { ptr, ptr, i64 }
%class.QList = type { %struct.QArrayDataPointer.0 }
%struct.QArrayDataPointer.0 = type { ptr, ptr, i64 }
%class.RelatedPacketDelegate = type <{ %class.QStyledItemDelegate, %class.QHash, ptr, i32, [4 x i8] }>
%class.QStyledItemDelegate = type { %class.QAbstractItemDelegate }
%class.QAbstractItemDelegate = type { %class.QObject }
%class.QHash = type { ptr }
%class.QList.1 = type { %struct.QArrayDataPointer.4 }
%struct.QArrayDataPointer.4 = type { ptr, ptr, i64 }
%class.QList.5 = type { %struct.QArrayDataPointer.8 }
%struct.QArrayDataPointer.8 = type { ptr, ptr, i64 }

; Function Attrs: mustprogress nounwind uwtable
define linkonce_odr noundef ptr @_ZNK17QArrayDataPointerIiE4dataEv(ptr noundef nonnull align 8 dereferenceable(24) %0) #2 comdat align 2 {
  %2 = alloca ptr, align 8
  store ptr %0, ptr %2, align 8
  %3 = load ptr, ptr %2, align 8
  %4 = getelementptr inbounds %struct.QArrayDataPointer.12, ptr %3, i32 0, i32 1
  %5 = load ptr, ptr %4, align 8
  ret ptr %5
}

; Function Attrs: mustprogress nounwind uwtable
define linkonce_odr noundef ptr @_ZNK17QArrayDataPointerIiEptEv(ptr noundef nonnull align 8 dereferenceable(24) %0) #2 comdat align 2 {
  %2 = alloca ptr, align 8
  store ptr %0, ptr %2, align 8
  %3 = load ptr, ptr %2, align 8
  ret ptr %3
}

; Function Attrs: mustprogress nounwind uwtable
define linkonce_odr noundef ptr @_ZNK5QListIiE4dataEv(ptr noundef nonnull align 8 dereferenceable(24) %0) #2 comdat align 2 {
  %2 = alloca ptr, align 8
  store ptr %0, ptr %2, align 8
  %3 = load ptr, ptr %2, align 8
  %4 = getelementptr inbounds %class.QList.9, ptr %3, i32 0, i32 0
  %5 = call noundef ptr @_ZNK17QArrayDataPointerIiEptEv(ptr noundef nonnull align 8 dereferenceable(24) %4) #16
  %6 = call noundef ptr @_ZNK17QArrayDataPointerIiE4dataEv(ptr noundef nonnull align 8 dereferenceable(24) %5) #16
  ret ptr %6
}

; Function Attrs: mustprogress nounwind uwtable
define linkonce_odr noundef i64 @_ZNK5QListIiE4sizeEv(ptr noundef nonnull align 8 dereferenceable(24) %0) #2 comdat align 2 {
  %2 = alloca ptr, align 8
  store ptr %0, ptr %2, align 8
  %3 = load ptr, ptr %2, align 8
  %4 = getelementptr inbounds %class.QList.9, ptr %3, i32 0, i32 0
  %5 = call noundef ptr @_ZNK17QArrayDataPointerIiEptEv(ptr noundef nonnull align 8 dereferenceable(24) %4) #16
  %6 = getelementptr inbounds %struct.QArrayDataPointer.12, ptr %5, i32 0, i32 2
  %7 = load i64, ptr %6, align 8
  ret i64 %7
}

; Function Attrs: mustprogress nounwind uwtable
define linkonce_odr noundef nonnull align 4 dereferenceable(4) ptr @_ZNK5QListIiE2atEx(ptr noundef nonnull align 8 dereferenceable(24) %0, i64 noundef %1) #2 comdat align 2 {
  %3 = alloca ptr, align 8
  %4 = alloca i64, align 8
  store ptr %0, ptr %3, align 8
  store i64 %1, ptr %4, align 8
  %5 = load ptr, ptr %3, align 8
  %6 = call noundef ptr @_ZNK5QListIiE4dataEv(ptr noundef nonnull align 8 dereferenceable(24) %5) #16
  %7 = load i64, ptr %4, align 8
  %8 = getelementptr i32, ptr %6, i64 %7
  ret ptr %8
}

; Function Attrs: mustprogress uwtable
define noundef zeroext i1 @_ZN10PacketList19havePreviousHistoryEb(ptr noundef nonnull align 8 dereferenceable(464) %0, i1 noundef zeroext %1) #0 align 2 {
  %3 = alloca i1, align 1
  %4 = alloca ptr, align 8
  %5 = alloca i8, align 1
  %6 = alloca i32, align 4
  store ptr %0, ptr %4, align 8
  %7 = zext i1 %1 to i8
  store i8 %7, ptr %5, align 1
  %8 = load ptr, ptr %4, align 8
  %9 = getelementptr inbounds %class.PacketList, ptr %8, i32 0, i32 27
  %10 = call noundef i64 @_ZNK5QListIiE4sizeEv(ptr noundef nonnull align 8 dereferenceable(24) %9) #16
  %11 = icmp slt i64 %10, 1
  br i1 %11, label %16, label %12

12:                                               ; preds = %2
  %13 = getelementptr inbounds %class.PacketList, ptr %8, i32 0, i32 28
  %14 = load i32, ptr %13, align 8
  %15 = icmp slt i32 %14, 1
  br i1 %15, label %16, label %17

16:                                               ; preds = %12, %2
  store i1 false, ptr %3, align 1
  br label %46

17:                                               ; preds = %12
  %18 = getelementptr inbounds %class.PacketList, ptr %8, i32 0, i32 28
  %19 = load i32, ptr %18, align 8
  %20 = sub i32 %19, 1
  store i32 %20, ptr %6, align 4
  br label %21

21:                                               ; preds = %42, %17
  %22 = load i32, ptr %6, align 4
  %23 = icmp sge i32 %22, 0
  br i1 %23, label %24, label %45

24:                                               ; preds = %21
  %25 = getelementptr inbounds %class.PacketList, ptr %8, i32 0, i32 1
  %26 = load ptr, ptr %25, align 8
  %27 = getelementptr inbounds %class.PacketList, ptr %8, i32 0, i32 27
  %28 = load i32, ptr %6, align 4
  %29 = sext i32 %28 to i64
  %30 = call noundef nonnull align 4 dereferenceable(4) ptr @_ZNK5QListIiE2atEx(ptr noundef nonnull align 8 dereferenceable(24) %27, i64 noundef %29) #16
  %31 = load i32, ptr %30, align 4
  %32 = call noundef i32 @_ZNK15PacketListModel17packetNumberToRowEi(ptr noundef nonnull align 8 dereferenceable(164) %26, i32 noundef %31)
  %33 = icmp sge i32 %32, 0
  br i1 %33, label %34, label %41

34:                                               ; preds = %24
  %35 = load i8, ptr %5, align 1
  %36 = trunc i8 %35 to i1
  br i1 %36, label %37, label %40

37:                                               ; preds = %34
  %38 = load i32, ptr %6, align 4
  %39 = getelementptr inbounds %class.PacketList, ptr %8, i32 0, i32 28
  store i32 %38, ptr %39, align 8
  br label %40

40:                                               ; preds = %37, %34
  store i1 true, ptr %3, align 1
  br label %46

41:                                               ; preds = %24
  br label %42

42:                                               ; preds = %41
  %43 = load i32, ptr %6, align 4
  %44 = add i32 %43, -1
  store i32 %44, ptr %6, align 4
  br label %21, !llvm.loop !39

45:                                               ; preds = %21
  store i1 false, ptr %3, align 1
  br label %46

46:                                               ; preds = %45, %40, %16
  %47 = load i1, ptr %3, align 1
  ret i1 %47
}

; Function Attrs: mustprogress uwtable
define void @_ZN10PacketList23goPreviousHistoryPacketEv(ptr noundef nonnull align 8 dereferenceable(464) %0) #0 align 2 {
  %2 = alloca ptr, align 8
  store ptr %0, ptr %2, align 8
  %3 = load ptr, ptr %2, align 8
  %4 = call noundef zeroext i1 @_ZN10PacketList19havePreviousHistoryEb(ptr noundef nonnull align 8 dereferenceable(464) %3, i1 noundef zeroext true)
  br i1 %4, label %5, label %14

5:                                                ; preds = %1
  %6 = getelementptr inbounds %class.PacketList, ptr %3, i32 0, i32 29
  store i8 1, ptr %6, align 4
  %7 = getelementptr inbounds %class.PacketList, ptr %3, i32 0, i32 27
  %8 = getelementptr inbounds %class.PacketList, ptr %3, i32 0, i32 28
  %9 = load i32, ptr %8, align 8
  %10 = sext i32 %9 to i64
  %11 = call noundef nonnull align 4 dereferenceable(4) ptr @_ZNK5QListIiE2atEx(ptr noundef nonnull align 8 dereferenceable(24) %7, i64 noundef %10) #16
  %12 = load i32, ptr %11, align 4
  call void @_ZN10PacketList10goToPacketEii(ptr noundef nonnull align 8 dereferenceable(464) %3, i32 noundef %12, i32 noundef -1)
  %13 = getelementptr inbounds %class.PacketList, ptr %3, i32 0, i32 29
  store i8 0, ptr %13, align 4
  br label %14

14:                                               ; preds = %5, %1
  ret void
}