; Function Attrs: mustprogress uwtable
define void @_ZN10PacketList23goPreviousHistoryPacketEv(ptr noundef nonnull align 8 dereferenceable(464) %0) local_unnamed_addr #0 align 2 {
  %2 = getelementptr inbounds i8, ptr %0, i64 440
  %3 = load i64, ptr %2, align 8
  %4 = icmp slt i64 %3, 1
  br i1 %4, label %_ZN10PacketList19havePreviousHistoryEb.exit.thread, label %5

5:                                                ; preds = %1
  %6 = getelementptr inbounds i8, ptr %0, i64 448
  %7 = load i32, ptr %6, align 8
  %8 = icmp slt i32 %7, 1
  br i1 %8, label %_ZN10PacketList19havePreviousHistoryEb.exit.thread, label %.preheader.i

.preheader.i:                                     ; preds = %5
  %9 = getelementptr inbounds i8, ptr %0, i64 40
  %10 = getelementptr inbounds i8, ptr %0, i64 432
  %11 = zext nneg i32 %7 to i64
  br label %12

12:                                               ; preds = %14, %.preheader.i
  %indvars.iv.i = phi i64 [ %11, %.preheader.i ], [ %indvars.iv.next.i, %14 ]
  %13 = icmp sgt i64 %indvars.iv.i, 0
  br i1 %13, label %14, label %_ZN10PacketList19havePreviousHistoryEb.exit.thread

14:                                               ; preds = %12
  %indvars.iv.next.i = add nsw i64 %indvars.iv.i, -1
  %15 = load ptr, ptr %9, align 8
  %16 = load ptr, ptr %10, align 8
  %17 = getelementptr i32, ptr %16, i64 %indvars.iv.next.i
  %18 = load i32, ptr %17, align 4
  %19 = tail call noundef i32 @_ZNK15PacketListModel17packetNumberToRowEi(ptr noundef nonnull align 8 dereferenceable(164) %15, i32 noundef %18)
  %20 = icmp sgt i32 %19, -1
  br i1 %20, label %21, label %12, !llvm.loop !177

21:                                               ; preds = %14
  %22 = trunc i64 %indvars.iv.next.i to i32
  store i32 %22, ptr %6, align 8
  %23 = getelementptr inbounds i8, ptr %0, i64 452
  store i8 1, ptr %23, align 4
  %sext = shl i64 %indvars.iv.next.i, 32
  %24 = ashr exact i64 %sext, 32
  %25 = load ptr, ptr %10, align 8
  %26 = getelementptr i32, ptr %25, i64 %24
  %27 = load i32, ptr %26, align 4
  tail call void @_ZN10PacketList10goToPacketEii(ptr noundef nonnull align 8 dereferenceable(464) %0, i32 noundef %27, i32 noundef -1)
  store i8 0, ptr %23, align 4
  br label %_ZN10PacketList19havePreviousHistoryEb.exit.thread

_ZN10PacketList19havePreviousHistoryEb.exit.thread: ; preds = %12, %1, %5, %21
  ret void
}